target datalayout = "e-m:e-p270:32:32-p271:32:32-p272:64:64-i64:64-i128:128-f80:128-n8:16:32:64-S128"
target triple = "x86_64-pc-linux-gnu"

%"class.std::fpos" = type { i64, %struct.__mbstate_t }
%struct.__mbstate_t = type { i32, %union.anon }
%union.anon = type { i32 }
%"class.LIEF::vector_iostream" = type <{ %"class.std::vector", %"class.std::fpos", %"class.std::vector.0", ptr, i8, [7 x i8] }>
%"class.std::vector" = type { %"struct.std::_Vector_base" }
%"struct.std::_Vector_base" = type { %"struct.std::_Vector_base<std::vector<unsigned long>, std::allocator<std::vector<unsigned long>>>::_Vector_impl" }
%"struct.std::_Vector_base<std::vector<unsigned long>, std::allocator<std::vector<unsigned long>>>::_Vector_impl" = type { %"struct.std::_Vector_base<std::vector<unsigned long>, std::allocator<std::vector<unsigned long>>>::_Vector_impl_data" }
%"struct.std::_Vector_base<std::vector<unsigned long>, std::allocator<std::vector<unsigned long>>>::_Vector_impl_data" = type { ptr, ptr, ptr }
%"class.std::vector.0" = type { %"struct.std::_Vector_base.1" }
%"struct.std::_Vector_base.1" = type { %"struct.std::_Vector_base<unsigned char, std::allocator<unsigned char>>::_Vector_impl" }
%"struct.std::_Vector_base<unsigned char, std::allocator<unsigned char>>::_Vector_impl" = type { %"struct.std::_Vector_base<unsigned char, std::allocator<unsigned char>>::_Vector_impl_data" }
%"struct.std::_Vector_base<unsigned char, std::allocator<unsigned char>>::_Vector_impl_data" = type { ptr, ptr, ptr }
%"class.std::__cxx11::basic_string" = type { %"struct.std::__cxx11::basic_string<char16_t>::_Alloc_hider", i64, %union.anon.8 }
%"struct.std::__cxx11::basic_string<char16_t>::_Alloc_hider" = type { ptr }
%union.anon.8 = type { i64, [8 x i8] }

; Function Attrs: mustprogress nounwind uwtable
define linkonce_odr hidden noundef ptr @_ZNSt11__copy_moveILb0ELb1ESt26random_access_iterator_tagE8__copy_mIDsEEPT_PKS3_S6_S4_(ptr noundef %0, ptr noundef %1, ptr noundef %2) #0 comdat align 2 {
  %4 = alloca ptr, align 8
  %5 = alloca ptr, align 8
  %6 = alloca ptr, align 8
  %7 = alloca i64, align 8
  store ptr %0, ptr %4, align 8, !tbaa !54
  store ptr %1, ptr %5, align 8, !tbaa !54
  store ptr %2, ptr %6, align 8, !tbaa !54
  call void @llvm.lifetime.start.p0(i64 8, ptr %7) #10
  %8 = load ptr, ptr %5, align 8, !tbaa !54
  %9 = load ptr, ptr %4, align 8, !tbaa !54
  %10 = ptrtoint ptr %8 to i64
  %11 = ptrtoint ptr %9 to i64
  %12 = sub i64 %10, %11
  %13 = sdiv exact i64 %12, 2
  store i64 %13, ptr %7, align 8, !tbaa !3
  %14 = load i64, ptr %7, align 8, !tbaa !3
  %15 = icmp ne i64 %14, 0
  br i1 %15, label %16, label %21

16:                                               ; preds = %3
  %17 = load ptr, ptr %6, align 8, !tbaa !54
  %18 = load ptr, ptr %4, align 8, !tbaa !54
  %19 = load i64, ptr %7, align 8, !tbaa !3
  %20 = mul i64 2, %19
  call void @llvm.memmove.p0.p0.i64(ptr align 2 %17, ptr align 2 %18, i64 %20, i1 false)
  br label %21

21:                                               ; preds = %16, %3
  %22 = load ptr, ptr %6, align 8, !tbaa !54
  %23 = load i64, ptr %7, align 8, !tbaa !3
  %24 = getelementptr inbounds i16, ptr %22, i64 %23
  call void @llvm.lifetime.end.p0(i64 8, ptr %7) #10
  ret ptr %24
}

; Function Attrs: inlinehint mustprogress nounwind uwtable
define linkonce_odr noundef ptr @_ZSt14__copy_move_a2ILb0EPKDsPDsET1_T0_S4_S3_(ptr noundef %0, ptr noundef %1, ptr noundef %2) #2 comdat {
  %4 = alloca ptr, align 8
  %5 = alloca ptr, align 8
  %6 = alloca ptr, align 8
  store ptr %0, ptr %4, align 8, !tbaa !54
  store ptr %1, ptr %5, align 8, !tbaa !54
  store ptr %2, ptr %6, align 8, !tbaa !54
  %7 = load ptr, ptr %4, align 8, !tbaa !54
  %8 = load ptr, ptr %5, align 8, !tbaa !54
  %9 = load ptr, ptr %6, align 8, !tbaa !54
  %10 = call noundef ptr @_ZNSt11__copy_moveILb0ELb1ESt26random_access_iterator_tagE8__copy_mIDsEEPT_PKS3_S6_S4_(ptr noundef %7, ptr noundef %8, ptr noundef %9)
  ret ptr %10
}

; Function Attrs: inlinehint mustprogress nounwind uwtable
define linkonce_odr noundef ptr @_ZSt12__niter_wrapIPDsET_RKS1_S1_(ptr noundef nonnull align 8 dereferenceable(8) %0, ptr noundef %1) #2 comdat {
  %3 = alloca ptr, align 8
  %4 = alloca ptr, align 8
  store ptr %0, ptr %3, align 8, !tbaa !70
  store ptr %1, ptr %4, align 8, !tbaa !54
  %5 = load ptr, ptr %4, align 8, !tbaa !54
  ret ptr %5
}

; Function Attrs: inlinehint mustprogress nounwind uwtable
define linkonce_odr noundef ptr @_ZSt14__copy_move_a1ILb0EPKDsPDsET1_T0_S4_S3_(ptr noundef %0, ptr noundef %1, ptr noundef %2) #2 comdat {
  %4 = alloca ptr, align 8
  %5 = alloca ptr, align 8
  %6 = alloca ptr, align 8
  store ptr %0, ptr %4, align 8, !tbaa !54
  store ptr %1, ptr %5, align 8, !tbaa !54
  store ptr %2, ptr %6, align 8, !tbaa !54
  %7 = load ptr, ptr %4, align 8, !tbaa !54
  %8 = load ptr, ptr %5, align 8, !tbaa !54
  %9 = load ptr, ptr %6, align 8, !tbaa !54
  %10 = call noundef ptr @_ZSt14__copy_move_a2ILb0EPKDsPDsET1_T0_S4_S3_(ptr noundef %7, ptr noundef %8, ptr noundef %9)
  ret ptr %10
}

; Function Attrs: inlinehint mustprogress nounwind uwtable
define linkonce_odr noundef ptr @_ZSt12__niter_baseIPDsET_S1_(ptr noundef %0) #2 comdat {
  %2 = alloca ptr, align 8
  store ptr %0, ptr %2, align 8, !tbaa !54
  %3 = load ptr, ptr %2, align 8, !tbaa !54
  ret ptr %3
}

; Function Attrs: inlinehint mustprogress nounwind uwtable
define linkonce_odr noundef ptr @_ZSt12__niter_baseIPKDsET_S2_(ptr noundef %0) #2 comdat {
  %2 = alloca ptr, align 8
  store ptr %0, ptr %2, align 8, !tbaa !54
  %3 = load ptr, ptr %2, align 8, !tbaa !54
  ret ptr %3
}

; Function Attrs: inlinehint mustprogress nounwind uwtable
define linkonce_odr noundef ptr @_ZSt13__copy_move_aILb0EPKDsPDsET1_T0_S4_S3_(ptr noundef %0, ptr noundef %1, ptr noundef %2) #2 comdat {
  %4 = alloca ptr, align 8
  %5 = alloca ptr, align 8
  %6 = alloca ptr, align 8
  store ptr %0, ptr %4, align 8, !tbaa !54
  store ptr %1, ptr %5, align 8, !tbaa !54
  store ptr %2, ptr %6, align 8, !tbaa !54
  %7 = load ptr, ptr %4, align 8, !tbaa !54
  %8 = call noundef ptr @_ZSt12__niter_baseIPKDsET_S2_(ptr noundef %7) #10
  %9 = load ptr, ptr %5, align 8, !tbaa !54
  %10 = call noundef ptr @_ZSt12__niter_baseIPKDsET_S2_(ptr noundef %9) #10
  %11 = load ptr, ptr %6, align 8, !tbaa !54
  %12 = call noundef ptr @_ZSt12__niter_baseIPDsET_S1_(ptr noundef %11) #10
  %13 = call noundef ptr @_ZSt14__copy_move_a1ILb0EPKDsPDsET1_T0_S4_S3_(ptr noundef %8, ptr noundef %10, ptr noundef %12)
  %14 = call noundef ptr @_ZSt12__niter_wrapIPDsET_RKS1_S1_(ptr noundef nonnull align 8 dereferenceable(8) %6, ptr noundef %13)
  ret ptr %14
}

; Function Attrs: inlinehint mustprogress nounwind uwtable
define linkonce_odr noundef ptr @_ZSt12__miter_baseIPKDsET_S2_(ptr noundef %0) #2 comdat {
  %2 = alloca ptr, align 8
  store ptr %0, ptr %2, align 8, !tbaa !54
  %3 = load ptr, ptr %2, align 8, !tbaa !54
  ret ptr %3
}

; Function Attrs: mustprogress nounwind uwtable
define linkonce_odr hidden noundef ptr @_ZNKSt6vectorIhSaIhEE11_M_data_ptrIhEEPT_S4_(ptr noundef nonnull align 8 dereferenceable(24) %0, ptr noundef %1) #0 comdat align 2 {
  %3 = alloca ptr, align 8
  %4 = alloca ptr, align 8
  store ptr %0, ptr %3, align 8, !tbaa !35
  store ptr %1, ptr %4, align 8, !tbaa !42
  %5 = load ptr, ptr %4, align 8, !tbaa !42
  ret ptr %5
}

; Function Attrs: mustprogress nounwind uwtable
define linkonce_odr hidden noundef ptr @_ZNKSt7__cxx1112basic_stringIDsSt11char_traitsIDsESaIDsEE7_M_dataEv(ptr noundef nonnull align 8 dereferenceable(32) %0) #0 comdat align 2 {
  %2 = alloca ptr, align 8
  store ptr %0, ptr %2, align 8, !tbaa !48
  %3 = load ptr, ptr %2, align 8
  %4 = getelementptr inbounds nuw %"class.std::__cxx11::basic_string", ptr %3, i32 0, i32 0
  %5 = getelementptr inbounds nuw %"struct.std::__cxx11::basic_string<char16_t>::_Alloc_hider", ptr %4, i32 0, i32 0
  %6 = load ptr, ptr %5, align 8, !tbaa !56
  ret ptr %6
}

; Function Attrs: mustprogress nounwind uwtable
define linkonce_odr hidden noundef nonnull align 8 dereferenceable(16) ptr @_ZNSt4fposI11__mbstate_tEpLEl(ptr noundef nonnull align 8 dereferenceable(16) %0, i64 noundef %1) #0 comdat align 2 {
  %3 = alloca ptr, align 8
  %4 = alloca i64, align 8
  store ptr %0, ptr %3, align 8, !tbaa !39
  store i64 %1, ptr %4, align 8, !tbaa !3
  %5 = load ptr, ptr %3, align 8
  %6 = load i64, ptr %4, align 8, !tbaa !3
  %7 = getelementptr inbounds nuw %"class.std::fpos", ptr %5, i32 0, i32 0
  %8 = load i64, ptr %7, align 8, !tbaa !41
  %9 = add nsw i64 %8, %6
  store i64 %9, ptr %7, align 8, !tbaa !41
  ret ptr %5
}

; Function Attrs: inlinehint mustprogress nounwind uwtable
define linkonce_odr noundef ptr @_ZSt4copyIPKDsPDsET0_T_S4_S3_(ptr noundef %0, ptr noundef %1, ptr noundef %2) #2 comdat {
  %4 = alloca ptr, align 8
  %5 = alloca ptr, align 8
  %6 = alloca ptr, align 8
  store ptr %0, ptr %4, align 8, !tbaa !54
  store ptr %1, ptr %5, align 8, !tbaa !54
  store ptr %2, ptr %6, align 8, !tbaa !54
  %7 = load ptr, ptr %4, align 8, !tbaa !54
  %8 = call noundef ptr @_ZSt12__miter_baseIPKDsET_S2_(ptr noundef %7)
  %9 = load ptr, ptr %5, align 8, !tbaa !54
  %10 = call noundef ptr @_ZSt12__miter_baseIPKDsET_S2_(ptr noundef %9)
  %11 = load ptr, ptr %6, align 8, !tbaa !54
  %12 = call noundef ptr @_ZSt13__copy_move_aILb0EPKDsPDsET1_T0_S4_S3_(ptr noundef %8, ptr noundef %10, ptr noundef %11)
  ret ptr %12
}

; Function Attrs: mustprogress nounwind uwtable
define linkonce_odr hidden noundef ptr @_ZNSt6vectorIhSaIhEE4dataEv(ptr noundef nonnull align 8 dereferenceable(24) %0) #0 comdat align 2 {
  %2 = alloca ptr, align 8
  store ptr %0, ptr %2, align 8, !tbaa !35
  %3 = load ptr, ptr %2, align 8
  %4 = getelementptr inbounds nuw %"struct.std::_Vector_base.1", ptr %3, i32 0, i32 0
  %5 = getelementptr inbounds nuw %"struct.std::_Vector_base<unsigned char, std::allocator<unsigned char>>::_Vector_impl_data", ptr %4, i32 0, i32 0
  %6 = load ptr, ptr %5, align 8, !tbaa !37
  %7 = call noundef ptr @_ZNKSt6vectorIhSaIhEE11_M_data_ptrIhEEPT_S4_(ptr noundef nonnull align 8 dereferenceable(24) %3, ptr noundef %6) #10
  ret ptr %7
}

; Function Attrs: mustprogress nounwind uwtable
define linkonce_odr hidden noundef ptr @_ZNKSt7__cxx1112basic_stringIDsSt11char_traitsIDsESaIDsEE4dataEv(ptr noundef nonnull align 8 dereferenceable(32) %0) #0 comdat align 2 {
  %2 = alloca ptr, align 8
  store ptr %0, ptr %2, align 8, !tbaa !48
  %3 = load ptr, ptr %2, align 8
  %4 = call noundef ptr @_ZNKSt7__cxx1112basic_stringIDsSt11char_traitsIDsESaIDsEE7_M_dataEv(ptr noundef nonnull align 8 dereferenceable(32) %3)
  ret ptr %4
}

; Function Attrs: mustprogress nounwind uwtable
define linkonce_odr hidden noundef i64 @_ZNKSt7__cxx1112basic_stringIDsSt11char_traitsIDsESaIDsEE4sizeEv(ptr noundef nonnull align 8 dereferenceable(32) %0) #0 comdat align 2 {
  %2 = alloca ptr, align 8
  store ptr %0, ptr %2, align 8, !tbaa !48
  %3 = load ptr, ptr %2, align 8
  %4 = getelementptr inbounds nuw %"class.std::__cxx11::basic_string", ptr %3, i32 0, i32 1
  %5 = load i64, ptr %4, align 8, !tbaa !50
  ret i64 %5
}

; Function Attrs: mustprogress nounwind uwtable
define linkonce_odr hidden noundef i64 @_ZNKSt6vectorIhSaIhEE4sizeEv(ptr noundef nonnull align 8 dereferenceable(24) %0) #0 comdat align 2 {
  %2 = alloca ptr, align 8
  store ptr %0, ptr %2, align 8, !tbaa !35
  %3 = load ptr, ptr %2, align 8
  %4 = getelementptr inbounds nuw %"struct.std::_Vector_base.1", ptr %3, i32 0, i32 0
  %5 = getelementptr inbounds nuw %"struct.std::_Vector_base<unsigned char, std::allocator<unsigned char>>::_Vector_impl_data", ptr %4, i32 0, i32 1
  %6 = load ptr, ptr %5, align 8, !tbaa !36
  %7 = getelementptr inbounds nuw %"struct.std::_Vector_base.1", ptr %3, i32 0, i32 0
  %8 = getelementptr inbounds nuw %"struct.std::_Vector_base<unsigned char, std::allocator<unsigned char>>::_Vector_impl_data", ptr %7, i32 0, i32 0
  %9 = load ptr, ptr %8, align 8, !tbaa !37
  %10 = ptrtoint ptr %6 to i64
  %11 = ptrtoint ptr %9 to i64
  %12 = sub i64 %10, %11
  ret i64 %12
}

; Function Attrs: mustprogress nounwind uwtable
define linkonce_odr hidden noundef i64 @_ZNKSt4fposI11__mbstate_tEcvlEv(ptr noundef nonnull align 8 dereferenceable(16) %0) #0 comdat align 2 {
  %2 = alloca ptr, align 8
  store ptr %0, ptr %2, align 8, !tbaa !39
  %3 = load ptr, ptr %2, align 8
  %4 = getelementptr inbounds nuw %"class.std::fpos", ptr %3, i32 0, i32 0
  %5 = load i64, ptr %4, align 8, !tbaa !41
  ret i64 %5
}

; Function Attrs: mustprogress nounwind uwtable
define linkonce_odr hidden { i64, i64 } @_ZNK4LIEF15vector_iostream5tellpEv(ptr noundef nonnull align 8 dereferenceable(73) %0) #0 comdat align 2 {
  %2 = alloca %"class.std::fpos", align 8
  %3 = alloca ptr, align 8
  store ptr %0, ptr %3, align 8, !tbaa !16
  %4 = load ptr, ptr %3, align 8
  %5 = getelementptr inbounds nuw %"class.LIEF::vector_iostream", ptr %4, i32 0, i32 1
  call void @llvm.memcpy.p0.p0.i64(ptr align 8 %2, ptr align 8 %5, i64 16, i1 false), !tbaa.struct !38
  %6 = load { i64, i64 }, ptr %2, align 8
  ret { i64, i64 } %6
}

; Function Attrs: mustprogress nounwind uwtable
define hidden noundef nonnull align 8 dereferenceable(73) ptr @_ZN4LIEF15vector_iostream5writeERKNSt7__cxx1112basic_stringIDsSt11char_traitsIDsESaIDsEEEb(ptr noundef nonnull align 8 dereferenceable(73) %0, ptr noundef nonnull align 8 dereferenceable(32) %1, i1 noundef zeroext %2) #0 align 2 {
  %4 = alloca ptr, align 8
  %5 = alloca ptr, align 8
  %6 = alloca i8, align 1
  %7 = alloca i64, align 8
  %8 = alloca i64, align 8
  %9 = alloca %"class.std::fpos", align 8
  store ptr %0, ptr %4, align 8, !tbaa !16
  store ptr %1, ptr %5, align 8, !tbaa !48
  %10 = zext i1 %2 to i8
  store i8 %10, ptr %6, align 1, !tbaa !11
  %11 = load ptr, ptr %4, align 8
  call void @llvm.lifetime.start.p0(i64 8, ptr %7) #10
  %12 = load i8, ptr %6, align 1, !tbaa !11, !range !13, !noundef !14
  %13 = trunc i8 %12 to i1
  %14 = select i1 %13, i32 1, i32 0
  %15 = sext i32 %14 to i64
  store i64 %15, ptr %7, align 8, !tbaa !3
  call void @llvm.lifetime.start.p0(i64 8, ptr %8) #10
  call void @llvm.lifetime.start.p0(i64 16, ptr %9) #10
  %16 = call { i64, i64 } @_ZNK4LIEF15vector_iostream5tellpEv(ptr noundef nonnull align 8 dereferenceable(73) %11)
  %17 = getelementptr inbounds nuw { i64, i64 }, ptr %9, i32 0, i32 0
  %18 = extractvalue { i64, i64 } %16, 0
  store i64 %18, ptr %17, align 8
  %19 = getelementptr inbounds nuw { i64, i64 }, ptr %9, i32 0, i32 1
  %20 = extractvalue { i64, i64 } %16, 1
  store i64 %20, ptr %19, align 8
  %21 = call noundef i64 @_ZNKSt4fposI11__mbstate_tEcvlEv(ptr noundef nonnull align 8 dereferenceable(16) %9)
  call void @llvm.lifetime.end.p0(i64 16, ptr %9) #10
  store i64 %21, ptr %8, align 8, !tbaa !3
  %22 = getelementptr inbounds nuw %"class.LIEF::vector_iostream", ptr %11, i32 0, i32 3
  %23 = load ptr, ptr %22, align 8, !tbaa !20
  %24 = call noundef i64 @_ZNKSt6vectorIhSaIhEE4sizeEv(ptr noundef nonnull align 8 dereferenceable(24) %23) #10
  %25 = load i64, ptr %8, align 8, !tbaa !3
  %26 = load ptr, ptr %5, align 8, !tbaa !48
  %27 = call noundef i64 @_ZNKSt7__cxx1112basic_stringIDsSt11char_traitsIDsESaIDsEE4sizeEv(ptr noundef nonnull align 8 dereferenceable(32) %26) #10
  %28 = add i64 %25, %27
  %29 = load i64, ptr %7, align 8, !tbaa !3
  %30 = add i64 %28, %29
  %31 = icmp ult i64 %24, %30
  br i1 %31, label %32, label %42

32:                                               ; preds = %3
  %33 = getelementptr inbounds nuw %"class.LIEF::vector_iostream", ptr %11, i32 0, i32 3
  %34 = load ptr, ptr %33, align 8, !tbaa !20
  %35 = load i64, ptr %8, align 8, !tbaa !3
  %36 = load ptr, ptr %5, align 8, !tbaa !48
  %37 = call noundef i64 @_ZNKSt7__cxx1112basic_stringIDsSt11char_traitsIDsESaIDsEE4sizeEv(ptr noundef nonnull align 8 dereferenceable(32) %36) #10
  %38 = load i64, ptr %7, align 8, !tbaa !3
  %39 = add i64 %37, %38
  %40 = mul i64 %39, 2
  %41 = add i64 %35, %40
  call void @_ZNSt6vectorIhSaIhEE6resizeEm(ptr noundef nonnull align 8 dereferenceable(24) %34, i64 noundef %41)
  br label %42

42:                                               ; preds = %32, %3
  %43 = load ptr, ptr %5, align 8, !tbaa !48
  %44 = call noundef ptr @_ZNKSt7__cxx1112basic_stringIDsSt11char_traitsIDsESaIDsEE4dataEv(ptr noundef nonnull align 8 dereferenceable(32) %43) #10
  %45 = load ptr, ptr %5, align 8, !tbaa !48
  %46 = call noundef ptr @_ZNKSt7__cxx1112basic_stringIDsSt11char_traitsIDsESaIDsEE4dataEv(ptr noundef nonnull align 8 dereferenceable(32) %45) #10
  %47 = load ptr, ptr %5, align 8, !tbaa !48
  %48 = call noundef i64 @_ZNKSt7__cxx1112basic_stringIDsSt11char_traitsIDsESaIDsEE4sizeEv(ptr noundef nonnull align 8 dereferenceable(32) %47) #10
  %49 = getelementptr inbounds nuw i16, ptr %46, i64 %48
  %50 = getelementptr inbounds nuw %"class.LIEF::vector_iostream", ptr %11, i32 0, i32 3
  %51 = load ptr, ptr %50, align 8, !tbaa !20
  %52 = call noundef ptr @_ZNSt6vectorIhSaIhEE4dataEv(ptr noundef nonnull align 8 dereferenceable(24) %51) #10
  %53 = getelementptr inbounds nuw %"class.LIEF::vector_iostream", ptr %11, i32 0, i32 1
  %54 = call noundef i64 @_ZNKSt4fposI11__mbstate_tEcvlEv(ptr noundef nonnull align 8 dereferenceable(16) %53)
  %55 = getelementptr inbounds i8, ptr %52, i64 %54
  %56 = call noundef ptr @_ZSt4copyIPKDsPDsET0_T_S4_S3_(ptr noundef %44, ptr noundef %49, ptr noundef %55)
  %57 = load ptr, ptr %5, align 8, !tbaa !48
  %58 = call noundef i64 @_ZNKSt7__cxx1112basic_stringIDsSt11char_traitsIDsESaIDsEE4sizeEv(ptr noundef nonnull align 8 dereferenceable(32) %57) #10
  %59 = load i64, ptr %7, align 8, !tbaa !3
  %60 = add i64 %58, %59
  %61 = mul i64 %60, 2
  %62 = getelementptr inbounds nuw %"class.LIEF::vector_iostream", ptr %11, i32 0, i32 1
  %63 = call noundef nonnull align 8 dereferenceable(16) ptr @_ZNSt4fposI11__mbstate_tEpLEl(ptr noundef nonnull align 8 dereferenceable(16) %62, i64 noundef %61)
  call void @llvm.lifetime.end.p0(i64 8, ptr %8) #10
  call void @llvm.lifetime.end.p0(i64 8, ptr %7) #10
  ret ptr %11
}