; Function Attrs: mustprogress nounwind uwtable
define hidden noundef nonnull align 8 dereferenceable(73) ptr @_ZN4LIEF15vector_iostream5writeERKNSt7__cxx1112basic_stringIDsSt11char_traitsIDsESaIDsEEEb(ptr noundef nonnull returned align 8 dereferenceable(73) %0, ptr noundef nonnull readonly align 8 captures(none) dereferenceable(32) %1, i1 noundef zeroext %2) local_unnamed_addr #2 align 2 {
  %4 = zext i1 %2 to i64
  %5 = getelementptr inbounds nuw i8, ptr %0, i64 24
  %.sroa.0.0.copyload.i = load i64, ptr %5, align 8, !tbaa !29
  %6 = getelementptr inbounds nuw i8, ptr %0, i64 64
  %7 = load ptr, ptr %6, align 8, !tbaa !6
  %8 = getelementptr inbounds nuw i8, ptr %7, i64 8
  %9 = load ptr, ptr %8, align 8, !tbaa !27
  %10 = load ptr, ptr %7, align 8, !tbaa !28
  %11 = ptrtoint ptr %9 to i64
  %12 = ptrtoint ptr %10 to i64
  %13 = sub i64 %11, %12
  %14 = getelementptr inbounds nuw i8, ptr %1, i64 8
  %15 = load i64, ptr %14, align 8, !tbaa !38
  %16 = add i64 %15, %4
  %17 = add i64 %16, %.sroa.0.0.copyload.i
  %18 = icmp ult i64 %13, %17
  br i1 %18, label %19, label %22

19:                                               ; preds = %3
  %20 = shl i64 %16, 1
  %21 = add i64 %20, %.sroa.0.0.copyload.i
  tail call void @_ZNSt6vectorIhSaIhEE6resizeEm(ptr noundef nonnull align 8 dereferenceable(24) %7, i64 noundef %21)
  %.pre = load i64, ptr %14, align 8, !tbaa !38
  %.pre15.pre = load i64, ptr %5, align 8, !tbaa !31
  br label %22

22:                                               ; preds = %19, %3
  %.pre15 = phi i64 [ %.pre15.pre, %19 ], [ %.sroa.0.0.copyload.i, %3 ]
  %23 = phi i64 [ %.pre, %19 ], [ %15, %3 ]
  %.not.i.i.i.i.i = icmp eq i64 %23, 0
  br i1 %.not.i.i.i.i.i, label %_ZSt4copyIPKDsPDsET0_T_S4_S3_.exit, label %24

24:                                               ; preds = %22
  %25 = load ptr, ptr %1, align 8, !tbaa !42
  %.idx = shl nuw nsw i64 %23, 1
  %26 = load ptr, ptr %6, align 8, !tbaa !6
  %27 = load ptr, ptr %26, align 8, !tbaa !28
  %28 = getelementptr inbounds i8, ptr %27, i64 %.pre15
  tail call void @llvm.memmove.p0.p0.i64(ptr align 2 %28, ptr align 2 %25, i64 %.idx, i1 false)
  %.pre13 = load i64, ptr %14, align 8, !tbaa !38
  %.pre14 = load i64, ptr %5, align 8, !tbaa !31
  br label %_ZSt4copyIPKDsPDsET0_T_S4_S3_.exit

_ZSt4copyIPKDsPDsET0_T_S4_S3_.exit:               ; preds = %22, %24
  %29 = phi i64 [ %.pre15, %22 ], [ %.pre14, %24 ]
  %30 = phi i64 [ 0, %22 ], [ %.pre13, %24 ]
  %31 = add i64 %30, %4
  %32 = shl i64 %31, 1
  %33 = add nsw i64 %32, %29
  store i64 %33, ptr %5, align 8, !tbaa !31
  ret ptr %0
}